target datalayout = "e-m:e-p270:32:32-p271:32:32-p272:64:64-i64:64-i128:128-f80:128-n8:16:32:64-S128"
target triple = "x86_64-pc-linux-gnu"

%struct._address = type { i32, i32, ptr, ptr }
%struct._packet_info = type { ptr, ptr, i32, i32, %struct.nstime_t, %struct.nstime_t, %struct.nstime_t, i8, ptr, ptr, ptr, ptr, %struct._address, %struct._address, %struct._address, %struct._address, %struct._address, %struct._address, i32, ptr, i8, [3 x i8], %struct.anon, i32, i32, i32, i32, ptr, i8, ptr, ptr, i16, i16, i32, i32, i16, i32, i32, ptr, ptr, ptr, i8, i8, i16, i16, i16, i32, i16, i16, ptr, ptr, ptr, ptr, ptr, i32, i32 }
%struct.nstime_t = type { i64, i32 }
%struct.anon = type { i8, [3 x i8] }
%struct.SslPacketInfo = type { ptr, ptr, i32, i32, i32 }

@proto_tls = internal global i32 0, align 4

; Function Attrs: null_pointer_is_valid sspstrong uwtable
define internal ptr @ssl_dst_value(ptr noundef %0) #0 {
  %2 = alloca ptr, align 8
  %3 = alloca ptr, align 8
  %4 = alloca ptr, align 8
  %5 = alloca i32, align 4
  store ptr %0, ptr %3, align 8
  call void @llvm.lifetime.start.p0(i64 8, ptr %4) #18
  %6 = call ptr @wmem_file_scope()
  %7 = load ptr, ptr %3, align 8
  %8 = load i32, ptr @proto_tls, align 4
  %9 = load ptr, ptr %3, align 8
  %10 = getelementptr inbounds nuw %struct._packet_info, ptr %9, i32 0, i32 41
  %11 = load i8, ptr %10, align 8
  %12 = zext i8 %11 to i32
  %13 = call ptr @p_get_proto_data(ptr noundef %6, ptr noundef %7, i32 noundef %8, i32 noundef %12)
  store ptr %13, ptr %4, align 8
  %14 = load ptr, ptr %4, align 8
  %15 = icmp eq ptr %14, null
  br i1 %15, label %16, label %22

16:                                               ; preds = %1
  %17 = load ptr, ptr %3, align 8
  %18 = getelementptr inbounds nuw %struct._packet_info, ptr %17, i32 0, i32 25
  %19 = load i32, ptr %18, align 8
  %20 = zext i32 %19 to i64
  %21 = inttoptr i64 %20 to ptr
  store ptr %21, ptr %2, align 8
  store i32 1, ptr %5, align 4
  br label %28

22:                                               ; preds = %1
  %23 = load ptr, ptr %4, align 8
  %24 = getelementptr inbounds nuw %struct.SslPacketInfo, ptr %23, i32 0, i32 3
  %25 = load i32, ptr %24, align 4
  %26 = zext i32 %25 to i64
  %27 = inttoptr i64 %26 to ptr
  store ptr %27, ptr %2, align 8
  store i32 1, ptr %5, align 4
  br label %28

28:                                               ; preds = %22, %16
  call void @llvm.lifetime.end.p0(i64 8, ptr %4) #18
  %29 = load ptr, ptr %2, align 8
  ret ptr %29
}